
avrhwrng.elf:     file format elf32-avr

Sections:
Idx Name          Size      VMA       LMA       File off  Algn
  0 .data         00000000  00800100  0000026e  000002e2  2**0
                  CONTENTS, ALLOC, LOAD, DATA
  1 .text         0000026e  00000000  00000000  00000074  2**1
                  CONTENTS, ALLOC, LOAD, READONLY, CODE
  2 .comment      00000011  00000000  00000000  000002e2  2**0
                  CONTENTS, READONLY
  3 .note.gnu.avr.deviceinfo 00000040  00000000  00000000  000002f4  2**2
                  CONTENTS, READONLY
  4 .debug_aranges 00000040  00000000  00000000  00000338  2**3
                  CONTENTS, READONLY, DEBUGGING
  5 .debug_info   00000803  00000000  00000000  00000378  2**0
                  CONTENTS, READONLY, DEBUGGING
  6 .debug_abbrev 000006b6  00000000  00000000  00000b7b  2**0
                  CONTENTS, READONLY, DEBUGGING
  7 .debug_line   000009bb  00000000  00000000  00001231  2**0
                  CONTENTS, READONLY, DEBUGGING
  8 .debug_frame  00000024  00000000  00000000  00001bec  2**2
                  CONTENTS, READONLY, DEBUGGING
  9 .debug_str    0000036e  00000000  00000000  00001c10  2**0
                  CONTENTS, READONLY, DEBUGGING
 10 .debug_loc    00000682  00000000  00000000  00001f7e  2**0
                  CONTENTS, READONLY, DEBUGGING
 11 .debug_ranges 00000010  00000000  00000000  00002600  2**0
                  CONTENTS, READONLY, DEBUGGING

Disassembly of section .text:

00000000 <__vectors>:
   0:	0c 94 34 00 	jmp	0x68	; 0x68 <__ctors_end>
   4:	0c 94 3e 00 	jmp	0x7c	; 0x7c <__bad_interrupt>
   8:	0c 94 3e 00 	jmp	0x7c	; 0x7c <__bad_interrupt>
   c:	0c 94 3e 00 	jmp	0x7c	; 0x7c <__bad_interrupt>
  10:	0c 94 3e 00 	jmp	0x7c	; 0x7c <__bad_interrupt>
  14:	0c 94 3e 00 	jmp	0x7c	; 0x7c <__bad_interrupt>
  18:	0c 94 3e 00 	jmp	0x7c	; 0x7c <__bad_interrupt>
  1c:	0c 94 3e 00 	jmp	0x7c	; 0x7c <__bad_interrupt>
  20:	0c 94 3e 00 	jmp	0x7c	; 0x7c <__bad_interrupt>
  24:	0c 94 3e 00 	jmp	0x7c	; 0x7c <__bad_interrupt>
  28:	0c 94 3e 00 	jmp	0x7c	; 0x7c <__bad_interrupt>
  2c:	0c 94 3e 00 	jmp	0x7c	; 0x7c <__bad_interrupt>
  30:	0c 94 3e 00 	jmp	0x7c	; 0x7c <__bad_interrupt>
  34:	0c 94 3e 00 	jmp	0x7c	; 0x7c <__bad_interrupt>
  38:	0c 94 3e 00 	jmp	0x7c	; 0x7c <__bad_interrupt>
  3c:	0c 94 3e 00 	jmp	0x7c	; 0x7c <__bad_interrupt>
  40:	0c 94 3e 00 	jmp	0x7c	; 0x7c <__bad_interrupt>
  44:	0c 94 3e 00 	jmp	0x7c	; 0x7c <__bad_interrupt>
  48:	0c 94 3e 00 	jmp	0x7c	; 0x7c <__bad_interrupt>
  4c:	0c 94 3e 00 	jmp	0x7c	; 0x7c <__bad_interrupt>
  50:	0c 94 3e 00 	jmp	0x7c	; 0x7c <__bad_interrupt>
  54:	0c 94 3e 00 	jmp	0x7c	; 0x7c <__bad_interrupt>
  58:	0c 94 3e 00 	jmp	0x7c	; 0x7c <__bad_interrupt>
  5c:	0c 94 3e 00 	jmp	0x7c	; 0x7c <__bad_interrupt>
  60:	0c 94 3e 00 	jmp	0x7c	; 0x7c <__bad_interrupt>
  64:	0c 94 3e 00 	jmp	0x7c	; 0x7c <__bad_interrupt>

00000068 <__ctors_end>:
  68:	11 24       	eor	r1, r1
  6a:	1f be       	out	0x3f, r1	; 63
  6c:	cf ef       	ldi	r28, 0xFF	; 255
  6e:	d8 e0       	ldi	r29, 0x08	; 8
  70:	de bf       	out	0x3e, r29	; 62
  72:	cd bf       	out	0x3d, r28	; 61
  74:	0e 94 40 00 	call	0x80	; 0x80 <main>
  78:	0c 94 35 01 	jmp	0x26a	; 0x26a <_exit>

0000007c <__bad_interrupt>:
  7c:	0c 94 00 00 	jmp	0	; 0x0 <__vectors>

00000080 <main>:

/* initialize IO ports */
static void ioinit(void) {

    /* disable interrupt before initialization*/
    cli();
  80:	f8 94       	cli

    /*
     * forced initialization
     * of unnecessary interrupts
     */
    MCUCR = 0x00;
  82:	15 be       	out	0x35, r1	; 53
    EICRA = 0x00;
  84:	10 92 69 00 	sts	0x0069, r1	; 0x800069 <__TEXT_REGION_LENGTH__+0x7e0069>
    EIMSK = 0x00;
  88:	1d ba       	out	0x1d, r1	; 29
    TIMSK0 = 0x00;
  8a:	10 92 6e 00 	sts	0x006E, r1	; 0x80006e <__TEXT_REGION_LENGTH__+0x7e006e>
    TIMSK1 = 0x00;
  8e:	10 92 6f 00 	sts	0x006F, r1	; 0x80006f <__TEXT_REGION_LENGTH__+0x7e006f>
    TIMSK2 = 0x00;
  92:	10 92 70 00 	sts	0x0070, r1	; 0x800070 <__TEXT_REGION_LENGTH__+0x7e0070>
    PCMSK0 = 0x00;
  96:	10 92 6b 00 	sts	0x006B, r1	; 0x80006b <__TEXT_REGION_LENGTH__+0x7e006b>
    PCMSK1 = 0x00;
  9a:	10 92 6c 00 	sts	0x006C, r1	; 0x80006c <__TEXT_REGION_LENGTH__+0x7e006c>
    PCMSK2 = 0x00;
  9e:	10 92 6d 00 	sts	0x006D, r1	; 0x80006d <__TEXT_REGION_LENGTH__+0x7e006d>
    PCICR = 0x00;
  a2:	10 92 68 00 	sts	0x0068, r1	; 0x800068 <__TEXT_REGION_LENGTH__+0x7e0068>
    PRR = 0x00;
  a6:	10 92 64 00 	sts	0x0064, r1	; 0x800064 <__TEXT_REGION_LENGTH__+0x7e0064>
     * PD6/Pin 6 to input
     * TXD/PD1/Pin 1 to output
     * RXD/PD0/Pin 0 to input
     * pullup enabled
     */
    DDRD = 0x3e;
  aa:	8e e3       	ldi	r24, 0x3E	; 62
  ac:	8a b9       	out	0x0a, r24	; 10
    PORTD = 0xff;
  ae:	8f ef       	ldi	r24, 0xFF	; 255
  b0:	8b b9       	out	0x0b, r24	; 11

    /* PCx all output, pulled up */
    DDRC = 0xff;
  b2:	87 b9       	out	0x07, r24	; 7
    PORTC = 0xff;
  b4:	88 b9       	out	0x08, r24	; 8

    /* PB5 = LED on Arduino 2009 */
    DDRB = 0xff;
  b6:	84 b9       	out	0x04, r24	; 4
    PORTB = 0x3f;
  b8:	8f e3       	ldi	r24, 0x3F	; 63
  ba:	85 b9       	out	0x05, r24	; 5

    /* comparator disabled */
    ACSR = 0x80;
  bc:	80 e8       	ldi	r24, 0x80	; 128
  be:	80 bf       	out	0x30, r24	; 48

    /* USART 0 */
    /* no USART IRQ, disable TX/RX */
    UCSR0B = 0x00;
  c0:	10 92 c1 00 	sts	0x00C1, r1	; 0x8000c1 <__TEXT_REGION_LENGTH__+0x7e00c1>
    /* clk 1x */
    UCSR0A = 0x00;
  c4:	10 92 c0 00 	sts	0x00C0, r1	; 0x8000c0 <__TEXT_REGION_LENGTH__+0x7e00c0>
    /* async, no parity, 8bit */
    UCSR0C = 0x06;
  c8:	86 e0       	ldi	r24, 0x06	; 6
  ca:	80 93 c2 00 	sts	0x00C2, r24	; 0x8000c2 <__TEXT_REGION_LENGTH__+0x7e00c2>
    /* baud rate (11520bps, 16MHz, U2Xn=1) */
    /* real rate: 111111bps (9 microsecs/bit) */
    UBRR0H = 0;
  ce:	10 92 c5 00 	sts	0x00C5, r1	; 0x8000c5 <__TEXT_REGION_LENGTH__+0x7e00c5>
    UBRR0L = 8;
  d2:	88 e0       	ldi	r24, 0x08	; 8
  d4:	80 93 c4 00 	sts	0x00C4, r24	; 0x8000c4 <__TEXT_REGION_LENGTH__+0x7e00c4>
    /* no USART IRQ, enable TX (no RX) */
    UCSR0B = 0x08;
  d8:	80 93 c1 00 	sts	0x00C1, r24	; 0x8000c1 <__TEXT_REGION_LENGTH__+0x7e00c1>

    /* Timer 0 */
    /* timer stop */
    TCCR0B = 0x00;
  dc:	15 bc       	out	0x25, r1	; 37
    /* reset counter */
    TCNT0 = 0;
  de:	16 bc       	out	0x26, r1	; 38
    /* no external output, CTC */
    TCCR0A = 0x02;
  e0:	82 e0       	ldi	r24, 0x02	; 2
  e2:	84 bd       	out	0x24, r24	; 36
     * from Port D (PD7 and PD6 together)
     * The timer period should not be smaller than
     * 110000 / 10 * 8 * 2 * 2 = 352000Hz or 2.84 microseconds
     */
    /* timer period: 46 machine cycles = 2.875 microseconds */
    OCR0A = 46 - 1;
  e4:	8d e2       	ldi	r24, 0x2D	; 45
  e6:	87 bd       	out	0x27, r24	; 39
    /* clk (16MHz or 0.0625 microsecond / count) */
    /* start timer */
    TCCR0B = 0x01;
  e8:	81 e0       	ldi	r24, 0x01	; 1
  ea:	85 bd       	out	0x25, r24	; 37
    uint8_t j = 0;
    uint8_t p2 = 0;
    uint8_t p2b = 0;
    uint8_t state = 0;
    uint8_t oval0 = 0;
    uint8_t oval1 = 0;
  ec:	50 e0       	ldi	r21, 0x00	; 0
    uint8_t oval0 = 0;
  ee:	60 e0       	ldi	r22, 0x00	; 0
    uint8_t state = 0;
  f0:	30 e0       	ldi	r19, 0x00	; 0
    uint8_t p2b = 0;
  f2:	f0 e0       	ldi	r31, 0x00	; 0
    uint8_t j = 0;
  f4:	40 e0       	ldi	r20, 0x00	; 0
    uint8_t p = 0;
  f6:	80 e0       	ldi	r24, 0x00	; 0
    uint8_t i = 0;
  f8:	20 e0       	ldi	r18, 0x00	; 0
            flagandbit0 = 0;
        }
        /* print accumulated value */
        if (i > 7) {
            /* flip PORTB LED */
            PORTB ^= 0x40;
  fa:	e0 e4       	ldi	r30, 0x40	; 64
        if ((TIFR0 & 0x02) == 0) {
  fc:	a9 9b       	sbis	0x15, 1	; 21
  fe:	fe cf       	rjmp	.-4      	; 0xfc <main+0x7c>
        TIFR0 |= 0x02;
 100:	a9 9a       	sbi	0x15, 1	; 21
        sval = PIND >> 6;
 102:	99 b1       	in	r25, 0x09	; 9
 104:	92 95       	swap	r25
 106:	96 95       	lsr	r25
 108:	96 95       	lsr	r25
 10a:	93 70       	andi	r25, 0x03	; 3
        if (state == 0) {
 10c:	31 11       	cpse	r19, r1
 10e:	1b c0       	rjmp	.+54     	; 0x146 <main+0xc6>
            oval0 = sval & 0x01;
 110:	69 2f       	mov	r22, r25
 112:	61 70       	andi	r22, 0x01	; 1
            oval1 = sval & 0x02;
 114:	59 2f       	mov	r21, r25
 116:	52 70       	andi	r21, 0x02	; 2
            state = 1;
 118:	31 e0       	ldi	r19, 0x01	; 1
        if (i > 7) {
 11a:	28 30       	cpi	r18, 0x08	; 8
 11c:	78 f3       	brcs	.-34     	; 0xfc <main+0x7c>
            PORTB ^= 0x40;
 11e:	95 b1       	in	r25, 0x05	; 5
 120:	9e 27       	eor	r25, r30
 122:	95 b9       	out	0x05, r25	; 5
            /* clear counters and buffer */
            p = 0;
            i = 0;
            /* change byte xor machine state */
            j++;
            if (j > 1) {
 124:	41 11       	cpse	r20, r1
 126:	87 c0       	rjmp	.+270    	; 0x236 <main+0x1b6>
 128:	f8 2f       	mov	r31, r24
            p = 0;
 12a:	80 e0       	ldi	r24, 0x00	; 0
            i = 0;
 12c:	20 e0       	ldi	r18, 0x00	; 0
            state = 1;
 12e:	31 e0       	ldi	r19, 0x01	; 1
            j++;
 130:	41 e0       	ldi	r20, 0x01	; 1
        if ((TIFR0 & 0x02) == 0) {
 132:	a9 9b       	sbis	0x15, 1	; 21
 134:	e3 cf       	rjmp	.-58     	; 0xfc <main+0x7c>
        TIFR0 |= 0x02;
 136:	a9 9a       	sbi	0x15, 1	; 21
        sval = PIND >> 6;
 138:	99 b1       	in	r25, 0x09	; 9
 13a:	92 95       	swap	r25
 13c:	96 95       	lsr	r25
 13e:	96 95       	lsr	r25
 140:	93 70       	andi	r25, 0x03	; 3
        if (state == 0) {
 142:	33 23       	and	r19, r19
 144:	29 f3       	breq	.-54     	; 0x110 <main+0x90>
            if ((sval & 0x01) != oval0) {
 146:	79 2f       	mov	r23, r25
 148:	72 70       	andi	r23, 0x02	; 2
 14a:	91 70       	andi	r25, 0x01	; 1
 14c:	96 17       	cp	r25, r22
 14e:	f9 f0       	breq	.+62     	; 0x18e <main+0x10e>
                if (oval0 == 0) {
 150:	61 11       	cpse	r22, r1
 152:	39 c0       	rjmp	.+114    	; 0x1c6 <main+0x146>
                    flagandbit0 = 1;
 154:	93 2f       	mov	r25, r19
            if ((sval & 0x02) != oval1) {
 156:	57 17       	cp	r21, r23
 158:	09 f4       	brne	.+2      	; 0x15c <main+0xdc>
 15a:	65 c0       	rjmp	.+202    	; 0x226 <main+0x1a6>
                if (oval1 == 0) {
 15c:	51 11       	cpse	r21, r1
 15e:	39 c0       	rjmp	.+114    	; 0x1d2 <main+0x152>
            p = p + p;
 160:	88 0f       	add	r24, r24
            p += flagandbit0 & 0x01;
 162:	91 70       	andi	r25, 0x01	; 1
 164:	89 0f       	add	r24, r25
            i++;
 166:	2f 5f       	subi	r18, 0xFF	; 255
        if (i > 7) {
 168:	93 2f       	mov	r25, r19
 16a:	50 e0       	ldi	r21, 0x00	; 0
 16c:	28 30       	cpi	r18, 0x08	; 8
 16e:	c8 f0       	brcs	.+50     	; 0x1a2 <main+0x122>
 170:	23 2f       	mov	r18, r19
 172:	50 e0       	ldi	r21, 0x00	; 0
            PORTB ^= 0x40;
 174:	95 b1       	in	r25, 0x05	; 5
 176:	9e 27       	eor	r25, r30
 178:	95 b9       	out	0x05, r25	; 5
            if (j > 1) {
 17a:	41 11       	cpse	r20, r1
 17c:	37 c0       	rjmp	.+110    	; 0x1ec <main+0x16c>
        }
        /* check whether a random bit is found on PD7 */
        if (flagandbit1 != 0) {
            /* accumulate 8 bits */
            p = p + p;
            p += flagandbit1 & 0x01;
 17e:	f8 2f       	mov	r31, r24
 180:	84 2f       	mov	r24, r20
 182:	43 2f       	mov	r20, r19
 184:	38 2f       	mov	r19, r24
 186:	82 2f       	mov	r24, r18
 188:	81 70       	andi	r24, 0x01	; 1
            i++;
 18a:	21 e0       	ldi	r18, 0x01	; 1
 18c:	b7 cf       	rjmp	.-146    	; 0xfc <main+0x7c>
            if ((sval & 0x02) != oval1) {
 18e:	57 17       	cp	r21, r23
 190:	09 f4       	brne	.+2      	; 0x194 <main+0x114>
 192:	62 c0       	rjmp	.+196    	; 0x258 <main+0x1d8>
                    flagandbit1 = 2;
 194:	92 e0       	ldi	r25, 0x02	; 2
                if (oval1 == 0) {
 196:	51 11       	cpse	r21, r1
 198:	01 c0       	rjmp	.+2      	; 0x19c <main+0x11c>
                    flagandbit1 = 1;
 19a:	93 2f       	mov	r25, r19
        if (i > 7) {
 19c:	28 30       	cpi	r18, 0x08	; 8
 19e:	08 f0       	brcs	.+2      	; 0x1a2 <main+0x122>
 1a0:	59 c0       	rjmp	.+178    	; 0x254 <main+0x1d4>
            p = p + p;
 1a2:	88 0f       	add	r24, r24
            p += flagandbit1 & 0x01;
 1a4:	91 70       	andi	r25, 0x01	; 1
 1a6:	89 0f       	add	r24, r25
            i++;
 1a8:	2f 5f       	subi	r18, 0xFF	; 255
            /* reset the von-Neumann check flag for PD7 */
            flagandbit1 = 0;
        }
        /* print accumulated value */
        if (i > 7) {
 1aa:	28 30       	cpi	r18, 0x08	; 8
 1ac:	09 f0       	breq	.+2      	; 0x1b0 <main+0x130>
 1ae:	50 c0       	rjmp	.+160    	; 0x250 <main+0x1d0>
            /* flip PORTB LED */
            PORTB ^= 0x40;
 1b0:	95 b1       	in	r25, 0x05	; 5
 1b2:	9e 27       	eor	r25, r30
 1b4:	95 b9       	out	0x05, r25	; 5
            /* clear counters and buffer */
            p = 0;
            i = 0;
            /* change byte xor machine state */
            j++;
            if (j > 1) {
 1b6:	41 11       	cpse	r20, r1
 1b8:	2a c0       	rjmp	.+84     	; 0x20e <main+0x18e>
            p += flagandbit0 & 0x01;
 1ba:	f8 2f       	mov	r31, r24
            p = 0;
 1bc:	80 e0       	ldi	r24, 0x00	; 0
            i = 0;
 1be:	20 e0       	ldi	r18, 0x00	; 0
            j++;
 1c0:	43 2f       	mov	r20, r19
            if (j > 1) {
 1c2:	30 e0       	ldi	r19, 0x00	; 0
 1c4:	9b cf       	rjmp	.-202    	; 0xfc <main+0x7c>
            if ((sval & 0x02) != oval1) {
 1c6:	90 e0       	ldi	r25, 0x00	; 0
 1c8:	57 17       	cp	r21, r23
 1ca:	69 f1       	breq	.+90     	; 0x226 <main+0x1a6>
                    flagandbit0 = 2;
 1cc:	92 e0       	ldi	r25, 0x02	; 2
                if (oval1 == 0) {
 1ce:	55 23       	and	r21, r21
 1d0:	39 f2       	breq	.-114    	; 0x160 <main+0xe0>
            p = p + p;
 1d2:	88 0f       	add	r24, r24
            p += flagandbit0 & 0x01;
 1d4:	91 70       	andi	r25, 0x01	; 1
 1d6:	89 0f       	add	r24, r25
            i++;
 1d8:	2f 5f       	subi	r18, 0xFF	; 255
        if (i > 7) {
 1da:	92 e0       	ldi	r25, 0x02	; 2
 1dc:	28 30       	cpi	r18, 0x08	; 8
 1de:	08 f3       	brcs	.-62     	; 0x1a2 <main+0x122>
 1e0:	22 e0       	ldi	r18, 0x02	; 2
            PORTB ^= 0x40;
 1e2:	95 b1       	in	r25, 0x05	; 5
 1e4:	9e 27       	eor	r25, r30
 1e6:	95 b9       	out	0x05, r25	; 5
            if (j > 1) {
 1e8:	44 23       	and	r20, r20
 1ea:	49 f2       	breq	.-110    	; 0x17e <main+0xfe>
 1ec:	30 e0       	ldi	r19, 0x00	; 0
                putchr(p2b ^ p2);
 1ee:	8f 27       	eor	r24, r31
    loop_until_bit_is_set(UCSR0A, UDRE0);
 1f0:	90 91 c0 00 	lds	r25, 0x00C0	; 0x8000c0 <__TEXT_REGION_LENGTH__+0x7e00c0>
 1f4:	95 ff       	sbrs	r25, 5
 1f6:	fc cf       	rjmp	.-8      	; 0x1f0 <main+0x170>
    UDR0 = c;
 1f8:	80 93 c6 00 	sts	0x00C6, r24	; 0x8000c6 <__TEXT_REGION_LENGTH__+0x7e00c6>
                j = 0;
 1fc:	40 e0       	ldi	r20, 0x00	; 0
            p = 0;
 1fe:	80 e0       	ldi	r24, 0x00	; 0
        if (flagandbit1 != 0) {
 200:	22 23       	and	r18, r18
 202:	09 f4       	brne	.+2      	; 0x206 <main+0x186>
 204:	7b cf       	rjmp	.-266    	; 0xfc <main+0x7c>
 206:	43 2f       	mov	r20, r19
 208:	8f 2f       	mov	r24, r31
                j = 0;
 20a:	30 e0       	ldi	r19, 0x00	; 0
 20c:	b8 cf       	rjmp	.-144    	; 0x17e <main+0xfe>
                j = 0;
                /* and output the result in a raw byte*/
                putchr(p2b ^ p2);
 20e:	8f 27       	eor	r24, r31
    loop_until_bit_is_set(UCSR0A, UDRE0);
 210:	90 91 c0 00 	lds	r25, 0x00C0	; 0x8000c0 <__TEXT_REGION_LENGTH__+0x7e00c0>
 214:	95 ff       	sbrs	r25, 5
 216:	fc cf       	rjmp	.-8      	; 0x210 <main+0x190>
    UDR0 = c;
 218:	80 93 c6 00 	sts	0x00C6, r24	; 0x8000c6 <__TEXT_REGION_LENGTH__+0x7e00c6>
 21c:	30 e0       	ldi	r19, 0x00	; 0
                j = 0;
 21e:	40 e0       	ldi	r20, 0x00	; 0
            p = 0;
 220:	80 e0       	ldi	r24, 0x00	; 0
            i = 0;
 222:	20 e0       	ldi	r18, 0x00	; 0
 224:	6b cf       	rjmp	.-298    	; 0xfc <main+0x7c>
            p = p + p;
 226:	88 0f       	add	r24, r24
            p += flagandbit0 & 0x01;
 228:	89 0f       	add	r24, r25
            i++;
 22a:	2f 5f       	subi	r18, 0xFF	; 255
        if (i > 7) {
 22c:	28 30       	cpi	r18, 0x08	; 8
 22e:	30 f4       	brcc	.+12     	; 0x23c <main+0x1bc>
 230:	57 2f       	mov	r21, r23
 232:	30 e0       	ldi	r19, 0x00	; 0
 234:	63 cf       	rjmp	.-314    	; 0xfc <main+0x7c>
            if (j > 1) {
 236:	20 e0       	ldi	r18, 0x00	; 0
            state = 1;
 238:	34 2f       	mov	r19, r20
 23a:	d9 cf       	rjmp	.-78     	; 0x1ee <main+0x16e>
            PORTB ^= 0x40;
 23c:	95 b1       	in	r25, 0x05	; 5
 23e:	9e 27       	eor	r25, r30
 240:	95 b9       	out	0x05, r25	; 5
            if (j > 1) {
 242:	57 2f       	mov	r21, r23
 244:	44 23       	and	r20, r20
 246:	09 f4       	brne	.+2      	; 0x24a <main+0x1ca>
 248:	b8 cf       	rjmp	.-144    	; 0x1ba <main+0x13a>
 24a:	20 e0       	ldi	r18, 0x00	; 0
 24c:	30 e0       	ldi	r19, 0x00	; 0
 24e:	cf cf       	rjmp	.-98     	; 0x1ee <main+0x16e>
        if (i > 7) {
 250:	30 e0       	ldi	r19, 0x00	; 0
 252:	54 cf       	rjmp	.-344    	; 0xfc <main+0x7c>
 254:	29 2f       	mov	r18, r25
 256:	8e cf       	rjmp	.-228    	; 0x174 <main+0xf4>
 258:	28 30       	cpi	r18, 0x08	; 8
 25a:	d0 f3       	brcs	.-12     	; 0x250 <main+0x1d0>
            PORTB ^= 0x40;
 25c:	95 b1       	in	r25, 0x05	; 5
 25e:	9e 27       	eor	r25, r30
 260:	95 b9       	out	0x05, r25	; 5
            if (j > 1) {
 262:	44 23       	and	r20, r20
 264:	09 f4       	brne	.+2      	; 0x268 <main+0x1e8>
 266:	a9 cf       	rjmp	.-174    	; 0x1ba <main+0x13a>
 268:	f0 cf       	rjmp	.-32     	; 0x24a <main+0x1ca>

0000026a <_exit>:
 26a:	f8 94       	cli

0000026c <__stop_program>:
 26c:	ff cf       	rjmp	.-2      	; 0x26c <__stop_program>
